; Function Attrs: mustprogress uwtable
define hidden void @_ZN15psort_user_decl8finalizeER13pdecl_manager(ptr noundef nonnull align 8 dereferenceable(56) %this, ptr noundef nonnull align 8 dereferenceable(192) %m) unnamed_addr #3 align 2 {
entry:
  %m_def = getelementptr inbounds i8, ptr %this, i64 48
  %0 = load ptr, ptr %m_def, align 8
  %tobool.not.i = icmp eq ptr %0, null
  br i1 %tobool.not.i, label %_ZN13pdecl_manager7dec_refEP5pdecl.exit, label %if.then.i

if.then.i:                                        ; preds = %entry
  %m_ref_count.i.i.i = getelementptr inbounds i8, ptr %0, i64 16
  %1 = load i32, ptr %m_ref_count.i.i.i, align 8
  %dec.i.i.i = add i32 %1, -1
  store i32 %dec.i.i.i, ptr %m_ref_count.i.i.i, align 8
  %cmp.i.i = icmp eq i32 %dec.i.i.i, 0
  br i1 %cmp.i.i, label %if.then.i.i, label %_ZN13pdecl_manager12lazy_dec_refEP5pdecl.exit.i

if.then.i.i:                                      ; preds = %if.then.i
  %m_to_delete.i.i = getelementptr inbounds i8, ptr %m, i64 80
  %2 = load ptr, ptr %m_to_delete.i.i, align 8
  %cmp.i.i.i = icmp eq ptr %2, null
  br i1 %cmp.i.i.i, label %if.then.i.i.i, label %lor.lhs.false.i.i.i

lor.lhs.false.i.i.i:                              ; preds = %if.then.i.i
  %arrayidx.i.i.i = getelementptr inbounds i8, ptr %2, i64 -4
  %3 = load i32, ptr %arrayidx.i.i.i, align 4
  %arrayidx4.i.i.i = getelementptr inbounds i8, ptr %2, i64 -8
  %4 = load i32, ptr %arrayidx4.i.i.i, align 4
  %cmp5.i.i.i = icmp eq i32 %3, %4
  br i1 %cmp5.i.i.i, label %if.then.i.i.i, label %_ZN6vectorIP5pdeclLb0EjE9push_backERKS1_.exit.i.i

if.then.i.i.i:                                    ; preds = %lor.lhs.false.i.i.i, %if.then.i.i
  tail call void @_ZN6vectorIP5pdeclLb0EjE13expand_vectorEv(ptr noundef nonnull align 8 dereferenceable(8) %m_to_delete.i.i)
  %.pre.i.i.i = load ptr, ptr %m_to_delete.i.i, align 8
  %arrayidx8.phi.trans.insert.i.i.i = getelementptr inbounds i8, ptr %.pre.i.i.i, i64 -4
  %.pre1.i.i.i = load i32, ptr %arrayidx8.phi.trans.insert.i.i.i, align 4
  br label %_ZN6vectorIP5pdeclLb0EjE9push_backERKS1_.exit.i.i

_ZN6vectorIP5pdeclLb0EjE9push_backERKS1_.exit.i.i: ; preds = %if.then.i.i.i, %lor.lhs.false.i.i.i
  %5 = phi i32 [ %.pre1.i.i.i, %if.then.i.i.i ], [ %3, %lor.lhs.false.i.i.i ]
  %6 = phi ptr [ %.pre.i.i.i, %if.then.i.i.i ], [ %2, %lor.lhs.false.i.i.i ]
  %idx.ext.i.i.i = zext i32 %5 to i64
  %add.ptr.i.i.i = getelementptr inbounds ptr, ptr %6, i64 %idx.ext.i.i.i
  store ptr %0, ptr %add.ptr.i.i.i, align 8
  %7 = load ptr, ptr %m_to_delete.i.i, align 8
  %arrayidx10.i.i.i = getelementptr inbounds i8, ptr %7, i64 -4
  %8 = load i32, ptr %arrayidx10.i.i.i, align 4
  %inc.i.i.i = add i32 %8, 1
  store i32 %inc.i.i.i, ptr %arrayidx10.i.i.i, align 4
  br label %_ZN13pdecl_manager12lazy_dec_refEP5pdecl.exit.i

_ZN13pdecl_manager12lazy_dec_refEP5pdecl.exit.i:  ; preds = %_ZN6vectorIP5pdeclLb0EjE9push_backERKS1_.exit.i.i, %if.then.i
  %m_to_delete.i2.i = getelementptr inbounds i8, ptr %m, i64 80
  %9 = load ptr, ptr %m_to_delete.i2.i, align 8
  %cmp.i2.i.i = icmp eq ptr %9, null
  br i1 %cmp.i2.i.i, label %_ZN13pdecl_manager7dec_refEP5pdecl.exit, label %_ZNK6vectorIP5pdeclLb0EjE5emptyEv.exit.i.i

_ZNK6vectorIP5pdeclLb0EjE5emptyEv.exit.i.i:       ; preds = %_ZN13pdecl_manager12lazy_dec_refEP5pdecl.exit.i, %_ZN6vectorIP5pdeclLb0EjE4backEv.exit.i.i
  %10 = phi ptr [ %15, %_ZN6vectorIP5pdeclLb0EjE4backEv.exit.i.i ], [ %9, %_ZN13pdecl_manager12lazy_dec_refEP5pdecl.exit.i ]
  %arrayidx.i.i3.i = getelementptr inbounds i8, ptr %10, i64 -4
  %11 = load i32, ptr %arrayidx.i.i3.i, align 4
  %cmp3.i.i.i = icmp eq i32 %11, 0
  br i1 %cmp3.i.i.i, label %_ZN13pdecl_manager7dec_refEP5pdecl.exit, label %_ZN6vectorIP5pdeclLb0EjE4backEv.exit.i.i

_ZN6vectorIP5pdeclLb0EjE4backEv.exit.i.i:         ; preds = %_ZNK6vectorIP5pdeclLb0EjE5emptyEv.exit.i.i
  %12 = add i32 %11, -1
  %13 = zext i32 %12 to i64
  %arrayidx.i1.i.i.i = getelementptr inbounds ptr, ptr %10, i64 %13
  %14 = load ptr, ptr %arrayidx.i1.i.i.i, align 8
  store i32 %12, ptr %arrayidx.i.i3.i, align 4
  tail call void @_ZN13pdecl_manager8del_declEP5pdecl(ptr noundef nonnull align 8 dereferenceable(192) %m, ptr noundef %14)
  %15 = load ptr, ptr %m_to_delete.i2.i, align 8
  %cmp.i.i4.i = icmp eq ptr %15, null
  br i1 %cmp.i.i4.i, label %_ZN13pdecl_manager7dec_refEP5pdecl.exit, label %_ZNK6vectorIP5pdeclLb0EjE5emptyEv.exit.i.i, !llvm.loop !9

_ZN13pdecl_manager7dec_refEP5pdecl.exit:          ; preds = %_ZNK6vectorIP5pdeclLb0EjE5emptyEv.exit.i.i, %_ZN6vectorIP5pdeclLb0EjE4backEv.exit.i.i, %entry, %_ZN13pdecl_manager12lazy_dec_refEP5pdecl.exit.i
  store ptr null, ptr %m_def, align 8
  %vtable.i = load ptr, ptr %this, align 8
  %vfn.i = getelementptr inbounds i8, ptr %vtable.i, i64 56
  %16 = load ptr, ptr %vfn.i, align 8
  tail call void %16(ptr noundef nonnull align 8 dereferenceable(48) %this, ptr noundef nonnull align 8 dereferenceable(192) %m)
  ret void
}